target datalayout = "e-m:e-p270:32:32-p271:32:32-p272:64:64-i64:64-i128:128-f80:128-n8:16:32:64-S128"
target triple = "x86_64-pc-linux-gnu"

%struct.MXFMetadataSet = type { [16 x i8], i64 }
%struct.MXFStructuralComponent = type { %struct.MXFMetadataSet, [16 x i8], [16 x i8], [16 x i8], i64, i64, i32 }

; Function Attrs: nounwind uwtable
define internal i32 @mxf_read_source_clip(ptr noundef %0, ptr noundef %1, i32 noundef %2, i32 noundef %3, ptr noundef %4, i64 noundef %5) #0 {
  %7 = alloca ptr, align 8
  %8 = alloca ptr, align 8
  %9 = alloca i32, align 4
  %10 = alloca i32, align 4
  %11 = alloca ptr, align 8
  %12 = alloca i64, align 8
  %13 = alloca ptr, align 8
  store ptr %0, ptr %7, align 8, !tbaa !90
  store ptr %1, ptr %8, align 8, !tbaa !138
  store i32 %2, ptr %9, align 4, !tbaa !47
  store i32 %3, ptr %10, align 4, !tbaa !47
  store ptr %4, ptr %11, align 8, !tbaa !13
  store i64 %5, ptr %12, align 8, !tbaa !37
  call void @llvm.lifetime.start.p0(i64 8, ptr %13) #13
  %14 = load ptr, ptr %7, align 8, !tbaa !90
  store ptr %14, ptr %13, align 8, !tbaa !156
  %15 = load i32, ptr %9, align 4, !tbaa !47
  switch i32 %15, label %42 [
    i32 514, label %16
    i32 4609, label %21
    i32 4353, label %26
    i32 4354, label %37
  ]

16:                                               ; preds = %6
  %17 = load ptr, ptr %8, align 8, !tbaa !138
  %18 = call i64 @avio_rb64(ptr noundef %17)
  %19 = load ptr, ptr %13, align 8, !tbaa !156
  %20 = getelementptr inbounds nuw %struct.MXFStructuralComponent, ptr %19, i32 0, i32 4
  store i64 %18, ptr %20, align 8, !tbaa !193
  br label %42

21:                                               ; preds = %6
  %22 = load ptr, ptr %8, align 8, !tbaa !138
  %23 = call i64 @avio_rb64(ptr noundef %22)
  %24 = load ptr, ptr %13, align 8, !tbaa !156
  %25 = getelementptr inbounds nuw %struct.MXFStructuralComponent, ptr %24, i32 0, i32 5
  store i64 %23, ptr %25, align 8, !tbaa !195
  br label %42

26:                                               ; preds = %6
  %27 = load ptr, ptr %8, align 8, !tbaa !138
  %28 = load ptr, ptr %13, align 8, !tbaa !156
  %29 = getelementptr inbounds nuw %struct.MXFStructuralComponent, ptr %28, i32 0, i32 1
  %30 = getelementptr inbounds [16 x i8], ptr %29, i64 0, i64 0
  %31 = call i32 @avio_read(ptr noundef %27, ptr noundef %30, i32 noundef 16)
  %32 = load ptr, ptr %8, align 8, !tbaa !138
  %33 = load ptr, ptr %13, align 8, !tbaa !156
  %34 = getelementptr inbounds nuw %struct.MXFStructuralComponent, ptr %33, i32 0, i32 2
  %35 = getelementptr inbounds [16 x i8], ptr %34, i64 0, i64 0
  %36 = call i32 @avio_read(ptr noundef %32, ptr noundef %35, i32 noundef 16)
  br label %42

37:                                               ; preds = %6
  %38 = load ptr, ptr %8, align 8, !tbaa !138
  %39 = call i32 @avio_rb32(ptr noundef %38)
  %40 = load ptr, ptr %13, align 8, !tbaa !156
  %41 = getelementptr inbounds nuw %struct.MXFStructuralComponent, ptr %40, i32 0, i32 6
  store i32 %39, ptr %41, align 8, !tbaa !173
  br label %42

42:                                               ; preds = %6, %37, %26, %21, %16
  call void @llvm.lifetime.end.p0(i64 8, ptr %13) #13
  ret i32 0
}