; Function Attrs: nounwind uwtable
define internal noundef i32 @mxf_read_source_clip(ptr noundef %0, ptr noundef %1, i32 noundef %2, i32 %3, ptr readnone captures(none) %4, i64 %5) #1 {
  switch i32 %2, label %21 [
    i32 514, label %7
    i32 4609, label %10
    i32 4353, label %13
    i32 4354, label %18
  ]

7:                                                ; preds = %6
  %8 = tail call i64 @avio_rb64(ptr noundef %1) #15
  %9 = getelementptr inbounds nuw i8, ptr %0, i64 72
  store i64 %8, ptr %9, align 8, !tbaa !134
  br label %21

10:                                               ; preds = %6
  %11 = tail call i64 @avio_rb64(ptr noundef %1) #15
  %12 = getelementptr inbounds nuw i8, ptr %0, i64 80
  store i64 %11, ptr %12, align 8, !tbaa !137
  br label %21

13:                                               ; preds = %6
  %14 = getelementptr inbounds nuw i8, ptr %0, i64 24
  %15 = tail call i32 @avio_read(ptr noundef %1, ptr noundef nonnull %14, i32 noundef 16) #15
  %16 = getelementptr inbounds nuw i8, ptr %0, i64 40
  %17 = tail call i32 @avio_read(ptr noundef %1, ptr noundef nonnull %16, i32 noundef 16) #15
  br label %21

18:                                               ; preds = %6
  %19 = tail call i32 @avio_rb32(ptr noundef %1) #15
  %20 = getelementptr inbounds nuw i8, ptr %0, i64 88
  store i32 %19, ptr %20, align 8, !tbaa !97
  br label %21

21:                                               ; preds = %18, %13, %10, %7, %6
  ret i32 0
}